target datalayout = "e-m:e-p270:32:32-p271:32:32-p272:64:64-i64:64-i128:128-f80:128-n8:16:32:64-S128"
target triple = "x86_64-pc-linux-gnu"

%struct.bio_st = type { ptr, ptr, ptr, ptr, ptr, i32, i32, i32, i32, i32, ptr, ptr, ptr, %struct.CRYPTO_REF_COUNT, i64, i64, %struct.crypto_ex_data_st }
%struct.CRYPTO_REF_COUNT = type { i32 }
%struct.crypto_ex_data_st = type { ptr, ptr }
%struct.bio_bio_st = type { ptr, i32, i64, i64, i64, ptr, i64 }

@.str = private unnamed_addr constant [32 x i8] c"../openssl/crypto/bio/bss_bio.c\00", align 1

; Function Attrs: nounwind uwtable
define internal i32 @bio_new(ptr noundef %0) #0 {
  %2 = alloca i32, align 4
  %3 = alloca ptr, align 8
  %4 = alloca ptr, align 8
  %5 = alloca i32, align 4
  store ptr %0, ptr %3, align 8, !tbaa !10
  call void @llvm.lifetime.start.p0(i64 8, ptr %4) #5
  %6 = call noalias ptr @CRYPTO_zalloc(i64 noundef 56, ptr noundef @.str, i32 noundef 78)
  store ptr %6, ptr %4, align 8, !tbaa !28
  %7 = load ptr, ptr %4, align 8, !tbaa !28
  %8 = icmp eq ptr %7, null
  br i1 %8, label %9, label %10

9:                                                ; preds = %1
  store i32 0, ptr %2, align 4
  store i32 1, ptr %5, align 4
  br label %16

10:                                               ; preds = %1
  %11 = load ptr, ptr %4, align 8, !tbaa !28
  %12 = getelementptr inbounds nuw %struct.bio_bio_st, ptr %11, i32 0, i32 4
  store i64 17408, ptr %12, align 8, !tbaa !34
  %13 = load ptr, ptr %4, align 8, !tbaa !28
  %14 = load ptr, ptr %3, align 8, !tbaa !10
  %15 = getelementptr inbounds nuw %struct.bio_st, ptr %14, i32 0, i32 10
  store ptr %13, ptr %15, align 8, !tbaa !27
  store i32 1, ptr %2, align 4
  store i32 1, ptr %5, align 4
  br label %16

16:                                               ; preds = %10, %9
  call void @llvm.lifetime.end.p0(i64 8, ptr %4) #5
  %17 = load i32, ptr %2, align 4
  ret i32 %17
}