; Function Attrs: nounwind uwtable
define internal range(i32 0, 2) i32 @bio_new(ptr noundef writeonly captures(none) %0) #1 {
  %2 = tail call noalias ptr @CRYPTO_zalloc(i64 noundef 56, ptr noundef nonnull @.str, i32 noundef 78) #8
  %3 = icmp eq ptr %2, null
  br i1 %3, label %7, label %4

4:                                                ; preds = %1
  %5 = getelementptr inbounds nuw i8, ptr %2, i64 32
  store i64 17408, ptr %5, align 8, !tbaa !25
  %6 = getelementptr inbounds nuw i8, ptr %0, i64 64
  store ptr %2, ptr %6, align 8, !tbaa !20
  br label %7

7:                                                ; preds = %1, %4
  %.0 = phi i32 [ 1, %4 ], [ 0, %1 ]
  ret i32 %.0
}